target datalayout = "e-m:e-p270:32:32-p271:32:32-p272:64:64-i64:64-i128:128-f80:128-n8:16:32:64-S128"
target triple = "x86_64-pc-linux-gnu"

%"class.std::unique_ptr" = type { %"struct.std::__uniq_ptr_data" }
%"struct.std::__uniq_ptr_data" = type { %"class.std::__uniq_ptr_impl" }
%"class.std::__uniq_ptr_impl" = type { %"class.std::tuple" }
%"class.std::tuple" = type { %"struct.std::_Tuple_impl" }
%"struct.std::_Tuple_impl" = type { %"struct.std::_Head_base.1" }
%"struct.std::_Head_base.1" = type { ptr }
%"class.evmone::Tracer" = type { ptr, %"class.std::unique_ptr" }
%"class.evmone::(anonymous namespace)::InstructionTracer" = type { %"class.evmone::Tracer", %"class.std::stack.51", ptr }
%"class.std::stack.51" = type { %"class.std::deque.52" }
%"class.std::deque.52" = type { %"class.std::_Deque_base.53" }
%"class.std::_Deque_base.53" = type { %"struct.std::_Deque_base<evmone::(anonymous namespace)::InstructionTracer::Context, std::allocator<evmone::(anonymous namespace)::InstructionTracer::Context>>::_Deque_impl" }
%"struct.std::_Deque_base<evmone::(anonymous namespace)::InstructionTracer::Context, std::allocator<evmone::(anonymous namespace)::InstructionTracer::Context>>::_Deque_impl" = type { %"struct.std::_Deque_base<evmone::(anonymous namespace)::InstructionTracer::Context, std::allocator<evmone::(anonymous namespace)::InstructionTracer::Context>>::_Deque_impl_data" }
%"struct.std::_Deque_base<evmone::(anonymous namespace)::InstructionTracer::Context, std::allocator<evmone::(anonymous namespace)::InstructionTracer::Context>>::_Deque_impl_data" = type { ptr, i64, %"struct.std::_Deque_iterator.57", %"struct.std::_Deque_iterator.57" }
%"struct.std::_Deque_iterator.57" = type { ptr, ptr, ptr, ptr }
%"struct.evmone::(anonymous namespace)::InstructionTracer::Context" = type { i32, ptr, i64 }

; Function Attrs: mustprogress nounwind uwtable
define internal void @_ZN9__gnu_cxx13new_allocatorIN6evmone12_GLOBAL__N_117InstructionTracer7ContextEE10deallocateEPS4_m(ptr noundef nonnull align 1 dereferenceable(1) %0, ptr noundef %1, i64 noundef %2) #0 align 2 {
  %4 = alloca ptr, align 8
  %5 = alloca ptr, align 8
  %6 = alloca i64, align 8
  store ptr %0, ptr %4, align 8, !tbaa !380
  store ptr %1, ptr %5, align 8, !tbaa !313
  store i64 %2, ptr %6, align 8, !tbaa !22
  %7 = load ptr, ptr %5, align 8, !tbaa !313
  %8 = load i64, ptr %6, align 8, !tbaa !22
  %9 = mul i64 %8, 24
  call void @_ZdlPvm(ptr noundef %7, i64 noundef %9) #16
  ret void
}

; Function Attrs: alwaysinline mustprogress nounwind uwtable
define internal void @_ZNSaIN6evmone12_GLOBAL__N_117InstructionTracer7ContextEE10deallocateEPS2_m(ptr noundef nonnull align 1 dereferenceable(1) %0, ptr noundef %1, i64 noundef %2) #6 align 2 {
  %4 = alloca ptr, align 8
  %5 = alloca ptr, align 8
  %6 = alloca i64, align 8
  store ptr %0, ptr %4, align 8, !tbaa !376
  store ptr %1, ptr %5, align 8, !tbaa !313
  store i64 %2, ptr %6, align 8, !tbaa !22
  %7 = load ptr, ptr %4, align 8
  %8 = load ptr, ptr %5, align 8, !tbaa !313
  %9 = load i64, ptr %6, align 8, !tbaa !22
  call void @_ZN9__gnu_cxx13new_allocatorIN6evmone12_GLOBAL__N_117InstructionTracer7ContextEE10deallocateEPS4_m(ptr noundef nonnull align 1 dereferenceable(1) %7, ptr noundef %8, i64 noundef %9)
  ret void
}

; Function Attrs: mustprogress nounwind uwtable
define internal noundef i64 @_ZNSt15_Deque_iteratorIN6evmone12_GLOBAL__N_117InstructionTracer7ContextERS3_PS3_E14_S_buffer_sizeEv() #0 align 2 {
  %1 = call noundef i64 @_ZSt16__deque_buf_sizem(i64 noundef 24)
  ret i64 %1
}

; Function Attrs: mustprogress nounwind uwtable
define internal void @_ZNSt16allocator_traitsISaIN6evmone12_GLOBAL__N_117InstructionTracer7ContextEEE10deallocateERS4_PS3_m(ptr noundef nonnull align 1 dereferenceable(1) %0, ptr noundef %1, i64 noundef %2) #0 align 2 {
  %4 = alloca ptr, align 8
  %5 = alloca ptr, align 8
  %6 = alloca i64, align 8
  store ptr %0, ptr %4, align 8, !tbaa !376
  store ptr %1, ptr %5, align 8, !tbaa !313
  store i64 %2, ptr %6, align 8, !tbaa !22
  %7 = load ptr, ptr %4, align 8, !tbaa !376, !nonnull !8
  %8 = load ptr, ptr %5, align 8, !tbaa !313
  %9 = load i64, ptr %6, align 8, !tbaa !22
  call void @_ZNSaIN6evmone12_GLOBAL__N_117InstructionTracer7ContextEE10deallocateEPS2_m(ptr noundef nonnull align 1 dereferenceable(1) %7, ptr noundef %8, i64 noundef %9)
  ret void
}

; Function Attrs: inlinehint mustprogress nounwind uwtable
define linkonce_odr noundef i64 @_ZSt16__deque_buf_sizem(i64 noundef %0) #2 comdat {
  %2 = alloca i64, align 8
  store i64 %0, ptr %2, align 8, !tbaa !22
  %3 = load i64, ptr %2, align 8, !tbaa !22
  %4 = icmp ult i64 %3, 512
  br i1 %4, label %5, label %8

5:                                                ; preds = %1
  %6 = load i64, ptr %2, align 8, !tbaa !22
  %7 = udiv i64 512, %6
  br label %9

8:                                                ; preds = %1
  br label %9

9:                                                ; preds = %8, %5
  %10 = phi i64 [ %7, %5 ], [ 1, %8 ]
  ret i64 %10
}

; Function Attrs: mustprogress nounwind uwtable
define internal void @_ZNSt15_Deque_iteratorIN6evmone12_GLOBAL__N_117InstructionTracer7ContextERS3_PS3_E11_M_set_nodeEPS5_(ptr noundef nonnull align 8 dereferenceable(32) %0, ptr noundef %1) #0 align 2 {
  %3 = alloca ptr, align 8
  %4 = alloca ptr, align 8
  store ptr %0, ptr %3, align 8, !tbaa !382
  store ptr %1, ptr %4, align 8, !tbaa !371
  %5 = load ptr, ptr %3, align 8
  %6 = load ptr, ptr %4, align 8, !tbaa !371
  %7 = getelementptr inbounds nuw %"struct.std::_Deque_iterator.57", ptr %5, i32 0, i32 3
  store ptr %6, ptr %7, align 8, !tbaa !387
  %8 = load ptr, ptr %4, align 8, !tbaa !371
  %9 = load ptr, ptr %8, align 8, !tbaa !313
  %10 = getelementptr inbounds nuw %"struct.std::_Deque_iterator.57", ptr %5, i32 0, i32 1
  store ptr %9, ptr %10, align 8, !tbaa !385
  %11 = getelementptr inbounds nuw %"struct.std::_Deque_iterator.57", ptr %5, i32 0, i32 1
  %12 = load ptr, ptr %11, align 8, !tbaa !385
  %13 = call noundef i64 @_ZNSt15_Deque_iteratorIN6evmone12_GLOBAL__N_117InstructionTracer7ContextERS3_PS3_E14_S_buffer_sizeEv() #16
  %14 = getelementptr inbounds %"struct.evmone::(anonymous namespace)::InstructionTracer::Context", ptr %12, i64 %13
  %15 = getelementptr inbounds nuw %"struct.std::_Deque_iterator.57", ptr %5, i32 0, i32 2
  store ptr %14, ptr %15, align 8, !tbaa !386
  ret void
}

; Function Attrs: mustprogress nounwind uwtable
define internal void @_ZNSt11_Deque_baseIN6evmone12_GLOBAL__N_117InstructionTracer7ContextESaIS3_EE18_M_deallocate_nodeEPS3_(ptr noundef nonnull align 8 dereferenceable(80) %0, ptr noundef %1) #0 align 2 {
  %3 = alloca ptr, align 8
  %4 = alloca ptr, align 8
  store ptr %0, ptr %3, align 8, !tbaa !365
  store ptr %1, ptr %4, align 8, !tbaa !313
  %5 = load ptr, ptr %3, align 8
  %6 = getelementptr inbounds nuw %"class.std::_Deque_base.53", ptr %5, i32 0, i32 0
  %7 = load ptr, ptr %4, align 8, !tbaa !313
  %8 = call noundef i64 @_ZSt16__deque_buf_sizem(i64 noundef 24)
  call void @_ZNSt16allocator_traitsISaIN6evmone12_GLOBAL__N_117InstructionTracer7ContextEEE10deallocateERS4_PS3_m(ptr noundef nonnull align 1 dereferenceable(1) %6, ptr noundef %7, i64 noundef %8)
  ret void
}

; Function Attrs: inlinehint mustprogress nounwind uwtable
define internal void @_ZSt10destroy_atIN6evmone12_GLOBAL__N_117InstructionTracer7ContextEEvPT_(ptr noundef %0) #2 {
  %2 = alloca ptr, align 8
  store ptr %0, ptr %2, align 8, !tbaa !313
  ret void
}

; Function Attrs: mustprogress nounwind uwtable
define internal void @_ZNSt5dequeIN6evmone12_GLOBAL__N_117InstructionTracer7ContextESaIS3_EE15_M_pop_back_auxEv(ptr noundef nonnull align 8 dereferenceable(80) %0) #0 align 2 {
  %2 = alloca ptr, align 8
  store ptr %0, ptr %2, align 8, !tbaa !363
  %3 = load ptr, ptr %2, align 8
  %4 = getelementptr inbounds nuw %"class.std::_Deque_base.53", ptr %3, i32 0, i32 0
  %5 = getelementptr inbounds nuw %"struct.std::_Deque_base<evmone::(anonymous namespace)::InstructionTracer::Context, std::allocator<evmone::(anonymous namespace)::InstructionTracer::Context>>::_Deque_impl_data", ptr %4, i32 0, i32 3
  %6 = getelementptr inbounds nuw %"struct.std::_Deque_iterator.57", ptr %5, i32 0, i32 1
  %7 = load ptr, ptr %6, align 8, !tbaa !374
  call void @_ZNSt11_Deque_baseIN6evmone12_GLOBAL__N_117InstructionTracer7ContextESaIS3_EE18_M_deallocate_nodeEPS3_(ptr noundef nonnull align 8 dereferenceable(80) %3, ptr noundef %7) #16
  %8 = getelementptr inbounds nuw %"class.std::_Deque_base.53", ptr %3, i32 0, i32 0
  %9 = getelementptr inbounds nuw %"struct.std::_Deque_base<evmone::(anonymous namespace)::InstructionTracer::Context, std::allocator<evmone::(anonymous namespace)::InstructionTracer::Context>>::_Deque_impl_data", ptr %8, i32 0, i32 3
  %10 = getelementptr inbounds nuw %"class.std::_Deque_base.53", ptr %3, i32 0, i32 0
  %11 = getelementptr inbounds nuw %"struct.std::_Deque_base<evmone::(anonymous namespace)::InstructionTracer::Context, std::allocator<evmone::(anonymous namespace)::InstructionTracer::Context>>::_Deque_impl_data", ptr %10, i32 0, i32 3
  %12 = getelementptr inbounds nuw %"struct.std::_Deque_iterator.57", ptr %11, i32 0, i32 3
  %13 = load ptr, ptr %12, align 8, !tbaa !396
  %14 = getelementptr inbounds ptr, ptr %13, i64 -1
  call void @_ZNSt15_Deque_iteratorIN6evmone12_GLOBAL__N_117InstructionTracer7ContextERS3_PS3_E11_M_set_nodeEPS5_(ptr noundef nonnull align 8 dereferenceable(32) %9, ptr noundef %14) #16
  %15 = getelementptr inbounds nuw %"class.std::_Deque_base.53", ptr %3, i32 0, i32 0
  %16 = getelementptr inbounds nuw %"struct.std::_Deque_base<evmone::(anonymous namespace)::InstructionTracer::Context, std::allocator<evmone::(anonymous namespace)::InstructionTracer::Context>>::_Deque_impl_data", ptr %15, i32 0, i32 3
  %17 = getelementptr inbounds nuw %"struct.std::_Deque_iterator.57", ptr %16, i32 0, i32 2
  %18 = load ptr, ptr %17, align 8, !tbaa !398
  %19 = getelementptr inbounds %"struct.evmone::(anonymous namespace)::InstructionTracer::Context", ptr %18, i64 -1
  %20 = getelementptr inbounds nuw %"class.std::_Deque_base.53", ptr %3, i32 0, i32 0
  %21 = getelementptr inbounds nuw %"struct.std::_Deque_base<evmone::(anonymous namespace)::InstructionTracer::Context, std::allocator<evmone::(anonymous namespace)::InstructionTracer::Context>>::_Deque_impl_data", ptr %20, i32 0, i32 3
  %22 = getelementptr inbounds nuw %"struct.std::_Deque_iterator.57", ptr %21, i32 0, i32 0
  store ptr %19, ptr %22, align 8, !tbaa !375
  %23 = call noundef nonnull align 1 dereferenceable(1) ptr @_ZNSt11_Deque_baseIN6evmone12_GLOBAL__N_117InstructionTracer7ContextESaIS3_EE19_M_get_Tp_allocatorEv(ptr noundef nonnull align 8 dereferenceable(80) %3) #16
  %24 = getelementptr inbounds nuw %"class.std::_Deque_base.53", ptr %3, i32 0, i32 0
  %25 = getelementptr inbounds nuw %"struct.std::_Deque_base<evmone::(anonymous namespace)::InstructionTracer::Context, std::allocator<evmone::(anonymous namespace)::InstructionTracer::Context>>::_Deque_impl_data", ptr %24, i32 0, i32 3
  %26 = getelementptr inbounds nuw %"struct.std::_Deque_iterator.57", ptr %25, i32 0, i32 0
  %27 = load ptr, ptr %26, align 8, !tbaa !375
  call void @_ZNSt16allocator_traitsISaIN6evmone12_GLOBAL__N_117InstructionTracer7ContextEEE7destroyIS3_EEvRS4_PT_(ptr noundef nonnull align 1 dereferenceable(1) %23, ptr noundef %27) #16
  ret void
}

; Function Attrs: mustprogress nounwind uwtable
define internal void @_ZNSt16allocator_traitsISaIN6evmone12_GLOBAL__N_117InstructionTracer7ContextEEE7destroyIS3_EEvRS4_PT_(ptr noundef nonnull align 1 dereferenceable(1) %0, ptr noundef %1) #0 align 2 {
  %3 = alloca ptr, align 8
  %4 = alloca ptr, align 8
  store ptr %0, ptr %3, align 8, !tbaa !376
  store ptr %1, ptr %4, align 8, !tbaa !313
  %5 = load ptr, ptr %4, align 8, !tbaa !313
  call void @_ZSt10destroy_atIN6evmone12_GLOBAL__N_117InstructionTracer7ContextEEvPT_(ptr noundef %5)
  ret void
}

; Function Attrs: mustprogress nounwind uwtable
define internal noundef nonnull align 1 dereferenceable(1) ptr @_ZNSt11_Deque_baseIN6evmone12_GLOBAL__N_117InstructionTracer7ContextESaIS3_EE19_M_get_Tp_allocatorEv(ptr noundef nonnull align 8 dereferenceable(80) %0) #0 align 2 {
  %2 = alloca ptr, align 8
  store ptr %0, ptr %2, align 8, !tbaa !365
  %3 = load ptr, ptr %2, align 8
  %4 = getelementptr inbounds nuw %"class.std::_Deque_base.53", ptr %3, i32 0, i32 0
  ret ptr %4
}

; Function Attrs: mustprogress nounwind uwtable
define internal void @_ZNSt5dequeIN6evmone12_GLOBAL__N_117InstructionTracer7ContextESaIS3_EE8pop_backEv(ptr noundef nonnull align 8 dereferenceable(80) %0) #0 align 2 {
  %2 = alloca ptr, align 8
  store ptr %0, ptr %2, align 8, !tbaa !363
  %3 = load ptr, ptr %2, align 8
  %4 = getelementptr inbounds nuw %"class.std::_Deque_base.53", ptr %3, i32 0, i32 0
  %5 = getelementptr inbounds nuw %"struct.std::_Deque_base<evmone::(anonymous namespace)::InstructionTracer::Context, std::allocator<evmone::(anonymous namespace)::InstructionTracer::Context>>::_Deque_impl_data", ptr %4, i32 0, i32 3
  %6 = getelementptr inbounds nuw %"struct.std::_Deque_iterator.57", ptr %5, i32 0, i32 0
  %7 = load ptr, ptr %6, align 8, !tbaa !375
  %8 = getelementptr inbounds nuw %"class.std::_Deque_base.53", ptr %3, i32 0, i32 0
  %9 = getelementptr inbounds nuw %"struct.std::_Deque_base<evmone::(anonymous namespace)::InstructionTracer::Context, std::allocator<evmone::(anonymous namespace)::InstructionTracer::Context>>::_Deque_impl_data", ptr %8, i32 0, i32 3
  %10 = getelementptr inbounds nuw %"struct.std::_Deque_iterator.57", ptr %9, i32 0, i32 1
  %11 = load ptr, ptr %10, align 8, !tbaa !374
  %12 = icmp ne ptr %7, %11
  br i1 %12, label %13, label %24

13:                                               ; preds = %1
  %14 = getelementptr inbounds nuw %"class.std::_Deque_base.53", ptr %3, i32 0, i32 0
  %15 = getelementptr inbounds nuw %"struct.std::_Deque_base<evmone::(anonymous namespace)::InstructionTracer::Context, std::allocator<evmone::(anonymous namespace)::InstructionTracer::Context>>::_Deque_impl_data", ptr %14, i32 0, i32 3
  %16 = getelementptr inbounds nuw %"struct.std::_Deque_iterator.57", ptr %15, i32 0, i32 0
  %17 = load ptr, ptr %16, align 8, !tbaa !375
  %18 = getelementptr inbounds %"struct.evmone::(anonymous namespace)::InstructionTracer::Context", ptr %17, i32 -1
  store ptr %18, ptr %16, align 8, !tbaa !375
  %19 = call noundef nonnull align 1 dereferenceable(1) ptr @_ZNSt11_Deque_baseIN6evmone12_GLOBAL__N_117InstructionTracer7ContextESaIS3_EE19_M_get_Tp_allocatorEv(ptr noundef nonnull align 8 dereferenceable(80) %3) #16
  %20 = getelementptr inbounds nuw %"class.std::_Deque_base.53", ptr %3, i32 0, i32 0
  %21 = getelementptr inbounds nuw %"struct.std::_Deque_base<evmone::(anonymous namespace)::InstructionTracer::Context, std::allocator<evmone::(anonymous namespace)::InstructionTracer::Context>>::_Deque_impl_data", ptr %20, i32 0, i32 3
  %22 = getelementptr inbounds nuw %"struct.std::_Deque_iterator.57", ptr %21, i32 0, i32 0
  %23 = load ptr, ptr %22, align 8, !tbaa !375
  call void @_ZNSt16allocator_traitsISaIN6evmone12_GLOBAL__N_117InstructionTracer7ContextEEE7destroyIS3_EEvRS4_PT_(ptr noundef nonnull align 1 dereferenceable(1) %19, ptr noundef %23) #16
  br label %25

24:                                               ; preds = %1
  call void @_ZNSt5dequeIN6evmone12_GLOBAL__N_117InstructionTracer7ContextESaIS3_EE15_M_pop_back_auxEv(ptr noundef nonnull align 8 dereferenceable(80) %3)
  br label %25

25:                                               ; preds = %24, %13
  ret void
}

; Function Attrs: mustprogress nounwind uwtable
define internal void @_ZNSt5stackIN6evmone12_GLOBAL__N_117InstructionTracer7ContextESt5dequeIS3_SaIS3_EEE3popEv(ptr noundef nonnull align 8 dereferenceable(80) %0) #0 align 2 {
  %2 = alloca ptr, align 8
  store ptr %0, ptr %2, align 8, !tbaa !309
  %3 = load ptr, ptr %2, align 8
  %4 = getelementptr inbounds nuw %"class.std::stack.51", ptr %3, i32 0, i32 0
  call void @_ZNSt5dequeIN6evmone12_GLOBAL__N_117InstructionTracer7ContextESaIS3_EE8pop_backEv(ptr noundef nonnull align 8 dereferenceable(80) %4) #16
  ret void
}

; Function Attrs: mustprogress nounwind uwtable
define internal void @_ZN6evmone12_GLOBAL__N_117InstructionTracer16on_execution_endERK11evmc_result(ptr noundef nonnull align 8 dereferenceable(104) %0, ptr noundef nonnull align 8 dereferenceable(72) %1) unnamed_addr #0 align 2 {
  %3 = alloca ptr, align 8
  %4 = alloca ptr, align 8
  store ptr %0, ptr %3, align 8, !tbaa !36
  store ptr %1, ptr %4, align 8, !tbaa !59
  %5 = load ptr, ptr %3, align 8
  %6 = getelementptr inbounds nuw %"class.evmone::(anonymous namespace)::InstructionTracer", ptr %5, i32 0, i32 1
  call void @_ZNSt5stackIN6evmone12_GLOBAL__N_117InstructionTracer7ContextESt5dequeIS3_SaIS3_EEE3popEv(ptr noundef nonnull align 8 dereferenceable(80) %6)
  ret void
}