; Function Attrs: mustprogress nounwind uwtable
define internal void @_ZN6evmone12_GLOBAL__N_117InstructionTracer16on_execution_endERK11evmc_result(ptr noundef nonnull align 8 captures(none) dereferenceable(104) %0, ptr nonnull readnone align 8 captures(none) %1) unnamed_addr #0 align 2 {
  %3 = getelementptr inbounds nuw i8, ptr %0, i64 64
  %4 = load ptr, ptr %3, align 8, !tbaa !62
  %5 = getelementptr inbounds nuw i8, ptr %0, i64 72
  %6 = load ptr, ptr %5, align 8, !tbaa !227
  %.not.i.i = icmp eq ptr %4, %6
  br i1 %.not.i.i, label %9, label %7

7:                                                ; preds = %2
  %8 = getelementptr inbounds i8, ptr %4, i64 -24
  br label %_ZNSt5stackIN6evmone12_GLOBAL__N_117InstructionTracer7ContextESt5dequeIS3_SaIS3_EEE3popEv.exit

9:                                                ; preds = %2
  tail call void @_ZdlPvm(ptr noundef %6, i64 noundef 504) #20
  %10 = getelementptr inbounds nuw i8, ptr %0, i64 88
  %11 = load ptr, ptr %10, align 8, !tbaa !143
  %12 = getelementptr inbounds i8, ptr %11, i64 -8
  store ptr %12, ptr %10, align 8, !tbaa !58
  %13 = load ptr, ptr %12, align 8, !tbaa !57
  store ptr %13, ptr %5, align 8, !tbaa !59
  %14 = getelementptr inbounds nuw i8, ptr %13, i64 504
  %15 = getelementptr inbounds nuw i8, ptr %0, i64 80
  store ptr %14, ptr %15, align 8, !tbaa !60
  %16 = getelementptr inbounds nuw i8, ptr %13, i64 480
  br label %_ZNSt5stackIN6evmone12_GLOBAL__N_117InstructionTracer7ContextESt5dequeIS3_SaIS3_EEE3popEv.exit

_ZNSt5stackIN6evmone12_GLOBAL__N_117InstructionTracer7ContextESt5dequeIS3_SaIS3_EEE3popEv.exit: ; preds = %7, %9
  %storemerge.i.i = phi ptr [ %8, %7 ], [ %16, %9 ]
  store ptr %storemerge.i.i, ptr %3, align 8, !tbaa !62
  ret void
}